#include <math.h>
#include <stdio.h>
#include <stdlib.h>
#include <string.h>

int main(int argc, char* argv[])
{
	int i,j,k,l;
	char q[51],p[51];
	scanf("%s%s",q,p);
	k=strlen(q);
	l=strlen(p);
	for(i=0;i<k;i++)
	{
		for(j=0;j<l;j++)
		{
			if(q[i]==p[j])
			{break;
			}
			
		}break;
	}
		   
	printf("%d",j);

				
			        
	return 0;
}