; ModuleID = 'source-C-CXX/44/2630.c'
source_filename = "source-C-CXX/44/2630.c"
target datalayout = "e-m:e-p270:32:32-p271:32:32-p272:64:64-i64:64-f80:128-n8:16:32:64-S128"
target triple = "x86_64-pc-linux-gnu"

@.str = private unnamed_addr constant [5 x i8] c"%s%s\00", align 1
@.str.1 = private unnamed_addr constant [3 x i8] c"%d\00", align 1

; Function Attrs: nofree nounwind sspstrong uwtable
define dso_local i32 @main(i32 %0, i8** nocapture readnone %1) local_unnamed_addr #0 {
  %3 = alloca [51 x i8], align 16
  %4 = alloca [51 x i8], align 16
  %5 = getelementptr inbounds [51 x i8], [51 x i8]* %3, i64 0, i64 0
  call void @llvm.lifetime.start.p0i8(i64 51, i8* nonnull %5) #4
  %6 = getelementptr inbounds [51 x i8], [51 x i8]* %4, i64 0, i64 0
  call void @llvm.lifetime.start.p0i8(i64 51, i8* nonnull %6) #4
  %7 = call i32 (i8*, ...) @__isoc99_scanf(i8* getelementptr inbounds ([5 x i8], [5 x i8]* @.str, i64 0, i64 0), i8* nonnull %5, i8* nonnull %6)
  %8 = call i64 @strlen(i8* noundef nonnull %5) #5
  %9 = trunc i64 %8 to i32
  %10 = call i64 @strlen(i8* noundef nonnull %6) #5
  %11 = trunc i64 %10 to i32
  %12 = icmp sgt i32 %9, 0
  br i1 %12, label %13, label %28

13:                                               ; preds = %2
  %14 = load i8, i8* %5, align 16
  %15 = icmp sgt i32 %11, 0
  br i1 %15, label %16, label %28

16:                                               ; preds = %13
  %17 = and i64 %10, 4294967295
  br label %18

18:                                               ; preds = %16, %23
  %19 = phi i64 [ 0, %16 ], [ %24, %23 ]
  %20 = getelementptr inbounds [51 x i8], [51 x i8]* %4, i64 0, i64 %19
  %21 = load i8, i8* %20, align 1, !tbaa !5
  %22 = icmp eq i8 %14, %21
  br i1 %22, label %26, label %23

23:                                               ; preds = %18
  %24 = add nuw nsw i64 %19, 1
  %25 = icmp eq i64 %24, %17
  br i1 %25, label %28, label %18, !llvm.loop !8

26:                                               ; preds = %18
  %27 = trunc i64 %19 to i32
  br label %28

28:                                               ; preds = %23, %26, %13, %2
  %29 = phi i32 [ undef, %2 ], [ 0, %13 ], [ %27, %26 ], [ %11, %23 ]
  %30 = call i32 (i8*, ...) @printf(i8* nonnull dereferenceable(1) getelementptr inbounds ([3 x i8], [3 x i8]* @.str.1, i64 0, i64 0), i32 %29)
  call void @llvm.lifetime.end.p0i8(i64 51, i8* nonnull %6) #4
  call void @llvm.lifetime.end.p0i8(i64 51, i8* nonnull %5) #4
  ret i32 0
}

; Function Attrs: argmemonly mustprogress nofree nosync nounwind willreturn
declare void @llvm.lifetime.start.p0i8(i64 immarg, i8* nocapture) #1

; Function Attrs: nofree nounwind
declare noundef i32 @__isoc99_scanf(i8* nocapture noundef readonly, ...) local_unnamed_addr #2

; Function Attrs: argmemonly mustprogress nofree nounwind readonly willreturn
declare i64 @strlen(i8* nocapture) local_unnamed_addr #3

; Function Attrs: nofree nounwind
declare noundef i32 @printf(i8* nocapture noundef readonly, ...) local_unnamed_addr #2

; Function Attrs: argmemonly mustprogress nofree nosync nounwind willreturn
declare void @llvm.lifetime.end.p0i8(i64 immarg, i8* nocapture) #1


!llvm.module.flags = !{!0, !1, !2, !3}
!llvm.ident = !{!4}

!0 = !{i32 1, !"wchar_size", i32 4}
!1 = !{i32 7, !"PIC Level", i32 2}
!2 = !{i32 7, !"PIE Level", i32 2}
!3 = !{i32 7, !"uwtable", i32 1}
!4 = !{!"clang version 13.0.0"}
!5 = !{!6, !6, i64 0}
!6 = !{!"omnipotent char", !7, i64 0}
!7 = !{!"Simple C/C++ TBAA"}
!8 = distinct !{!8, !9}
!9 = !{!"llvm.loop.mustprogress"}
